target datalayout = "e-m:e-p270:32:32-p271:32:32-p272:64:64-i64:64-i128:128-f80:128-n8:16:32:64-S128"
target triple = "x86_64-pc-linux-gnu"

%struct.v_data = type { i32, ptr, ptr }

@stderr = external global ptr, align 8
@.str = private unnamed_addr constant [58 x i8] c"integer overflow when trying to allocate %zu * %zu bytes\0A\00", align 1
@.str.1 = private unnamed_addr constant [49 x i8] c"out of memory when trying to allocate %zu bytes\0A\00", align 1

; Function Attrs: inlinehint nounwind uwtable
define internal ptr @gv_calloc(i64 noundef %0, i64 noundef %1) #2 {
  %3 = alloca i64, align 8
  %4 = alloca i64, align 8
  %5 = alloca ptr, align 8
  store i64 %0, ptr %3, align 8, !tbaa !20
  store i64 %1, ptr %4, align 8, !tbaa !20
  %6 = load i64, ptr %3, align 8, !tbaa !20
  %7 = icmp ugt i64 %6, 0
  br i1 %7, label %8, label %18

8:                                                ; preds = %2
  %9 = load i64, ptr %3, align 8, !tbaa !20
  %10 = udiv i64 -1, %9
  %11 = load i64, ptr %4, align 8, !tbaa !20
  %12 = icmp ult i64 %10, %11
  br i1 %12, label %13, label %18

13:                                               ; preds = %8
  %14 = load ptr, ptr @stderr, align 8, !tbaa !22
  %15 = load i64, ptr %3, align 8, !tbaa !20
  %16 = load i64, ptr %4, align 8, !tbaa !20
  %17 = call i32 (ptr, ptr, ...) @fprintf(ptr noundef %14, ptr noundef @.str, i64 noundef %15, i64 noundef %16) #8
  call void @graphviz_exit(i32 noundef 1) #9
  unreachable

18:                                               ; preds = %8, %2
  call void @llvm.lifetime.start.p0(i64 8, ptr %5) #8
  %19 = load i64, ptr %3, align 8, !tbaa !20
  %20 = load i64, ptr %4, align 8, !tbaa !20
  %21 = call noalias ptr @calloc(i64 noundef %19, i64 noundef %20) #10
  store ptr %21, ptr %5, align 8, !tbaa !24
  %22 = load i64, ptr %3, align 8, !tbaa !20
  %23 = icmp ugt i64 %22, 0
  br i1 %23, label %24, label %36

24:                                               ; preds = %18
  %25 = load i64, ptr %4, align 8, !tbaa !20
  %26 = icmp ugt i64 %25, 0
  br i1 %26, label %27, label %36

27:                                               ; preds = %24
  %28 = load ptr, ptr %5, align 8, !tbaa !24
  %29 = icmp eq ptr %28, null
  br i1 %29, label %30, label %36

30:                                               ; preds = %27
  %31 = load ptr, ptr @stderr, align 8, !tbaa !22
  %32 = load i64, ptr %3, align 8, !tbaa !20
  %33 = load i64, ptr %4, align 8, !tbaa !20
  %34 = mul i64 %32, %33
  %35 = call i32 (ptr, ptr, ...) @fprintf(ptr noundef %31, ptr noundef @.str.1, i64 noundef %34) #8
  call void @graphviz_exit(i32 noundef 1) #9
  unreachable

36:                                               ; preds = %27, %24, %18
  %37 = load ptr, ptr %5, align 8, !tbaa !24
  call void @llvm.lifetime.end.p0(i64 8, ptr %5) #8
  ret ptr %37
}

; Function Attrs: nounwind uwtable
define ptr @call_tri2(i32 noundef %0, i32 noundef %1, ptr noundef %2) #0 {
  %4 = alloca i32, align 4
  %5 = alloca i32, align 4
  %6 = alloca ptr, align 8
  %7 = alloca ptr, align 8
  %8 = alloca i32, align 4
  %9 = alloca i32, align 4
  %10 = alloca ptr, align 8
  %11 = alloca ptr, align 8
  %12 = alloca double, align 8
  %13 = alloca ptr, align 8
  %14 = alloca ptr, align 8
  %15 = alloca ptr, align 8
  store i32 %0, ptr %4, align 4, !tbaa !3
  store i32 %1, ptr %5, align 4, !tbaa !3
  store ptr %2, ptr %6, align 8, !tbaa !7
  call void @llvm.lifetime.start.p0(i64 8, ptr %7) #8
  call void @llvm.lifetime.start.p0(i64 4, ptr %8) #8
  call void @llvm.lifetime.start.p0(i64 4, ptr %9) #8
  call void @llvm.lifetime.start.p0(i64 8, ptr %10) #8
  call void @llvm.lifetime.start.p0(i64 8, ptr %11) #8
  call void @llvm.lifetime.start.p0(i64 8, ptr %12) #8
  store double 1.000000e+00, ptr %12, align 8, !tbaa !10
  call void @llvm.lifetime.start.p0(i64 8, ptr %13) #8
  %16 = load i32, ptr %4, align 4, !tbaa !3
  %17 = sext i32 %16 to i64
  %18 = call ptr @gv_calloc(i64 noundef %17, i64 noundef 8)
  store ptr %18, ptr %13, align 8, !tbaa !7
  call void @llvm.lifetime.start.p0(i64 8, ptr %14) #8
  %19 = load i32, ptr %4, align 4, !tbaa !3
  %20 = sext i32 %19 to i64
  %21 = call ptr @gv_calloc(i64 noundef %20, i64 noundef 8)
  store ptr %21, ptr %14, align 8, !tbaa !7
  store i32 0, ptr %8, align 4, !tbaa !3
  br label %22

22:                                               ; preds = %50, %3
  %23 = load i32, ptr %8, align 4, !tbaa !3
  %24 = load i32, ptr %4, align 4, !tbaa !3
  %25 = icmp slt i32 %23, %24
  br i1 %25, label %26, label %53

26:                                               ; preds = %22
  %27 = load ptr, ptr %6, align 8, !tbaa !7
  %28 = load i32, ptr %5, align 4, !tbaa !3
  %29 = load i32, ptr %8, align 4, !tbaa !3
  %30 = mul nsw i32 %28, %29
  %31 = sext i32 %30 to i64
  %32 = getelementptr inbounds double, ptr %27, i64 %31
  %33 = load double, ptr %32, align 8, !tbaa !10
  %34 = load ptr, ptr %13, align 8, !tbaa !7
  %35 = load i32, ptr %8, align 4, !tbaa !3
  %36 = sext i32 %35 to i64
  %37 = getelementptr inbounds double, ptr %34, i64 %36
  store double %33, ptr %37, align 8, !tbaa !10
  %38 = load ptr, ptr %6, align 8, !tbaa !7
  %39 = load i32, ptr %5, align 4, !tbaa !3
  %40 = load i32, ptr %8, align 4, !tbaa !3
  %41 = mul nsw i32 %39, %40
  %42 = add nsw i32 %41, 1
  %43 = sext i32 %42 to i64
  %44 = getelementptr inbounds double, ptr %38, i64 %43
  %45 = load double, ptr %44, align 8, !tbaa !10
  %46 = load ptr, ptr %14, align 8, !tbaa !7
  %47 = load i32, ptr %8, align 4, !tbaa !3
  %48 = sext i32 %47 to i64
  %49 = getelementptr inbounds double, ptr %46, i64 %48
  store double %45, ptr %49, align 8, !tbaa !10
  br label %50

50:                                               ; preds = %26
  %51 = load i32, ptr %8, align 4, !tbaa !3
  %52 = add nsw i32 %51, 1
  store i32 %52, ptr %8, align 4, !tbaa !3
  br label %22, !llvm.loop !25

53:                                               ; preds = %22
  %54 = load ptr, ptr %13, align 8, !tbaa !7
  %55 = load ptr, ptr %14, align 8, !tbaa !7
  %56 = load i32, ptr %4, align 4, !tbaa !3
  %57 = call ptr @UG_graph(ptr noundef %54, ptr noundef %55, i32 noundef %56)
  store ptr %57, ptr %7, align 8, !tbaa !24
  %58 = load i32, ptr %4, align 4, !tbaa !3
  %59 = load i32, ptr %4, align 4, !tbaa !3
  %60 = call ptr @SparseMatrix_new(i32 noundef %58, i32 noundef %59, i32 noundef 1, i32 noundef 1, i32 noundef 1)
  store ptr %60, ptr %10, align 8, !tbaa !16
  store i32 0, ptr %8, align 4, !tbaa !3
  br label %61

61:                                               ; preds = %93, %53
  %62 = load i32, ptr %8, align 4, !tbaa !3
  %63 = load i32, ptr %4, align 4, !tbaa !3
  %64 = icmp slt i32 %62, %63
  br i1 %64, label %65, label %96

65:                                               ; preds = %61
  store i32 1, ptr %9, align 4, !tbaa !3
  br label %66

66:                                               ; preds = %89, %65
  %67 = load i32, ptr %9, align 4, !tbaa !3
  %68 = load ptr, ptr %7, align 8, !tbaa !24
  %69 = load i32, ptr %8, align 4, !tbaa !3
  %70 = sext i32 %69 to i64
  %71 = getelementptr inbounds %struct.v_data, ptr %68, i64 %70
  %72 = getelementptr inbounds nuw %struct.v_data, ptr %71, i32 0, i32 0
  %73 = load i32, ptr %72, align 8, !tbaa !26
  %74 = icmp slt i32 %67, %73
  br i1 %74, label %75, label %92

75:                                               ; preds = %66
  %76 = load ptr, ptr %10, align 8, !tbaa !16
  %77 = load i32, ptr %8, align 4, !tbaa !3
  %78 = load ptr, ptr %7, align 8, !tbaa !24
  %79 = load i32, ptr %8, align 4, !tbaa !3
  %80 = sext i32 %79 to i64
  %81 = getelementptr inbounds %struct.v_data, ptr %78, i64 %80
  %82 = getelementptr inbounds nuw %struct.v_data, ptr %81, i32 0, i32 1
  %83 = load ptr, ptr %82, align 8, !tbaa !29
  %84 = load i32, ptr %9, align 4, !tbaa !3
  %85 = sext i32 %84 to i64
  %86 = getelementptr inbounds i32, ptr %83, i64 %85
  %87 = load i32, ptr %86, align 4, !tbaa !3
  %88 = call ptr @SparseMatrix_coordinate_form_add_entry(ptr noundef %76, i32 noundef %77, i32 noundef %87, ptr noundef %12)
  br label %89

89:                                               ; preds = %75
  %90 = load i32, ptr %9, align 4, !tbaa !3
  %91 = add nsw i32 %90, 1
  store i32 %91, ptr %9, align 4, !tbaa !3
  br label %66, !llvm.loop !30

92:                                               ; preds = %66
  br label %93

93:                                               ; preds = %92
  %94 = load i32, ptr %8, align 4, !tbaa !3
  %95 = add nsw i32 %94, 1
  store i32 %95, ptr %8, align 4, !tbaa !3
  br label %61, !llvm.loop !31

96:                                               ; preds = %61
  store i32 0, ptr %8, align 4, !tbaa !3
  br label %97

97:                                               ; preds = %106, %96
  %98 = load i32, ptr %8, align 4, !tbaa !3
  %99 = load i32, ptr %4, align 4, !tbaa !3
  %100 = icmp slt i32 %98, %99
  br i1 %100, label %101, label %109

101:                                              ; preds = %97
  %102 = load ptr, ptr %10, align 8, !tbaa !16
  %103 = load i32, ptr %8, align 4, !tbaa !3
  %104 = load i32, ptr %8, align 4, !tbaa !3
  %105 = call ptr @SparseMatrix_coordinate_form_add_entry(ptr noundef %102, i32 noundef %103, i32 noundef %104, ptr noundef %12)
  br label %106

106:                                              ; preds = %101
  %107 = load i32, ptr %8, align 4, !tbaa !3
  %108 = add nsw i32 %107, 1
  store i32 %108, ptr %8, align 4, !tbaa !3
  br label %97, !llvm.loop !32

109:                                              ; preds = %97
  %110 = load ptr, ptr %10, align 8, !tbaa !16
  %111 = call ptr @SparseMatrix_from_coordinate_format(ptr noundef %110)
  store ptr %111, ptr %11, align 8, !tbaa !16
  call void @llvm.lifetime.start.p0(i64 8, ptr %15) #8
  %112 = load ptr, ptr %11, align 8, !tbaa !16
  %113 = call ptr @SparseMatrix_symmetrize(ptr noundef %112, i1 noundef zeroext false)
  store ptr %113, ptr %15, align 8, !tbaa !16
  %114 = load ptr, ptr %11, align 8, !tbaa !16
  call void @SparseMatrix_delete(ptr noundef %114)
  %115 = load ptr, ptr %15, align 8, !tbaa !16
  store ptr %115, ptr %11, align 8, !tbaa !16
  call void @llvm.lifetime.end.p0(i64 8, ptr %15) #8
  %116 = load ptr, ptr %10, align 8, !tbaa !16
  call void @SparseMatrix_delete(ptr noundef %116)
  %117 = load ptr, ptr %13, align 8, !tbaa !7
  call void @free(ptr noundef %117) #8
  %118 = load ptr, ptr %14, align 8, !tbaa !7
  call void @free(ptr noundef %118) #8
  %119 = load ptr, ptr %7, align 8, !tbaa !24
  call void @freeGraph(ptr noundef %119)
  %120 = load ptr, ptr %11, align 8, !tbaa !16
  call void @llvm.lifetime.end.p0(i64 8, ptr %14) #8
  call void @llvm.lifetime.end.p0(i64 8, ptr %13) #8
  call void @llvm.lifetime.end.p0(i64 8, ptr %12) #8
  call void @llvm.lifetime.end.p0(i64 8, ptr %11) #8
  call void @llvm.lifetime.end.p0(i64 8, ptr %10) #8
  call void @llvm.lifetime.end.p0(i64 4, ptr %9) #8
  call void @llvm.lifetime.end.p0(i64 4, ptr %8) #8
  call void @llvm.lifetime.end.p0(i64 8, ptr %7) #8
  ret ptr %120
}