; Function Attrs: nounwind uwtable
define ptr @call_tri2(i32 noundef %0, i32 noundef %1, ptr noundef readonly captures(none) %2) local_unnamed_addr #0 {
  %4 = alloca double, align 8
  call void @llvm.lifetime.start.p0(i64 8, ptr nonnull %4) #9
  store double 1.000000e+00, ptr %4, align 8, !tbaa !3
  %5 = sext i32 %0 to i64
  %mul.ov.i = icmp slt i32 %0, 0
  br i1 %mul.ov.i, label %6, label %9

6:                                                ; preds = %3
  %7 = load ptr, ptr @stderr, align 8, !tbaa !7
  %8 = tail call i32 (ptr, ptr, ...) @fprintf(ptr noundef %7, ptr noundef nonnull @.str, i64 noundef range(i64 -2147483648, 2147483648) %5, i64 noundef 8) #10
  tail call fastcc void @graphviz_exit() #11
  unreachable

9:                                                ; preds = %3
  %10 = icmp ne i32 %0, 0
  %11 = tail call noalias ptr @calloc(i64 noundef range(i64 -2147483648, 2147483648) %5, i64 noundef 8) #12
  %12 = icmp eq ptr %11, null
  %or.cond3.i = and i1 %10, %12
  br i1 %or.cond3.i, label %13, label %gv_calloc.exit

13:                                               ; preds = %9
  %14 = load ptr, ptr @stderr, align 8, !tbaa !7
  %15 = shl nuw nsw i64 %5, 3
  %16 = tail call i32 (ptr, ptr, ...) @fprintf(ptr noundef %14, ptr noundef nonnull @.str.1, i64 noundef %15) #10
  tail call fastcc void @graphviz_exit() #11
  unreachable

gv_calloc.exit:                                   ; preds = %9
  %17 = tail call noalias ptr @calloc(i64 noundef range(i64 -2147483648, 2147483648) %5, i64 noundef 8) #12
  %18 = icmp eq ptr %17, null
  %or.cond3.i49 = and i1 %10, %18
  br i1 %or.cond3.i49, label %20, label %gv_calloc.exit50.preheader

gv_calloc.exit50.preheader:                       ; preds = %gv_calloc.exit
  %.not = icmp eq i32 %0, 0
  br i1 %.not, label %gv_calloc.exit50._crit_edge, label %gv_calloc.exit50.preheader61

gv_calloc.exit50.preheader61:                     ; preds = %gv_calloc.exit50.preheader
  %19 = sext i32 %1 to i64
  %wide.trip.count = zext nneg i32 %0 to i64
  br label %gv_calloc.exit50

20:                                               ; preds = %gv_calloc.exit
  %21 = load ptr, ptr @stderr, align 8, !tbaa !7
  %22 = shl nuw nsw i64 %5, 3
  %23 = tail call i32 (ptr, ptr, ...) @fprintf(ptr noundef %21, ptr noundef nonnull @.str.1, i64 noundef %22) #10
  tail call fastcc void @graphviz_exit() #11
  unreachable

gv_calloc.exit50:                                 ; preds = %gv_calloc.exit50.preheader61, %gv_calloc.exit50
  %indvars.iv = phi i64 [ 0, %gv_calloc.exit50.preheader61 ], [ %indvars.iv.next, %gv_calloc.exit50 ]
  %24 = mul nsw i64 %indvars.iv, %19
  %25 = getelementptr inbounds double, ptr %2, i64 %24
  %26 = load double, ptr %25, align 8, !tbaa !3
  %27 = getelementptr inbounds nuw double, ptr %11, i64 %indvars.iv
  store double %26, ptr %27, align 8, !tbaa !3
  %28 = getelementptr i8, ptr %25, i64 8
  %29 = load double, ptr %28, align 8, !tbaa !3
  %30 = getelementptr inbounds nuw double, ptr %17, i64 %indvars.iv
  store double %29, ptr %30, align 8, !tbaa !3
  %indvars.iv.next = add nuw nsw i64 %indvars.iv, 1
  %exitcond.not = icmp eq i64 %indvars.iv.next, %wide.trip.count
  br i1 %exitcond.not, label %gv_calloc.exit50._crit_edge, label %gv_calloc.exit50, !llvm.loop !16

gv_calloc.exit50._crit_edge:                      ; preds = %gv_calloc.exit50, %gv_calloc.exit50.preheader
  %31 = tail call ptr @UG_graph(ptr noundef %11, ptr noundef %17, i32 noundef %0) #9
  %32 = tail call ptr @SparseMatrix_new(i32 noundef %0, i32 noundef %0, i32 noundef 1, i32 noundef 1, i32 noundef 1) #9
  br i1 %.not, label %._crit_edge58, label %.preheader51.preheader

.preheader51.preheader:                           ; preds = %gv_calloc.exit50._crit_edge
  %smax = tail call i32 @llvm.smax.i32(i32 %0, i32 1)
  %wide.trip.count69 = zext nneg i32 %smax to i64
  br label %.preheader51

.preheader51:                                     ; preds = %.preheader51.preheader, %._crit_edge
  %indvars.iv66 = phi i64 [ 0, %.preheader51.preheader ], [ %indvars.iv.next67, %._crit_edge ]
  %33 = getelementptr inbounds nuw %struct.v_data, ptr %31, i64 %indvars.iv66
  %34 = load i32, ptr %33, align 8, !tbaa !17
  %35 = icmp sgt i32 %34, 1
  br i1 %35, label %.lr.ph54, label %._crit_edge

.lr.ph54:                                         ; preds = %.preheader51
  %36 = getelementptr inbounds nuw i8, ptr %33, i64 8
  %37 = trunc nuw nsw i64 %indvars.iv66 to i32
  br label %38

.lr.ph57.preheader:                               ; preds = %._crit_edge
  %smax71 = call i32 @llvm.smax.i32(i32 %0, i32 1)
  br label %.lr.ph57

38:                                               ; preds = %.lr.ph54, %38
  %indvars.iv63 = phi i64 [ 1, %.lr.ph54 ], [ %indvars.iv.next64, %38 ]
  %39 = load ptr, ptr %36, align 8, !tbaa !21
  %40 = getelementptr inbounds nuw i32, ptr %39, i64 %indvars.iv63
  %41 = load i32, ptr %40, align 4, !tbaa !10
  %42 = call ptr @SparseMatrix_coordinate_form_add_entry(ptr noundef %32, i32 noundef %37, i32 noundef %41, ptr noundef nonnull %4) #9
  %indvars.iv.next64 = add nuw nsw i64 %indvars.iv63, 1
  %43 = load i32, ptr %33, align 8, !tbaa !17
  %44 = sext i32 %43 to i64
  %45 = icmp slt i64 %indvars.iv.next64, %44
  br i1 %45, label %38, label %._crit_edge, !llvm.loop !22

._crit_edge:                                      ; preds = %38, %.preheader51
  %indvars.iv.next67 = add nuw nsw i64 %indvars.iv66, 1
  %exitcond70.not = icmp eq i64 %indvars.iv.next67, %wide.trip.count69
  br i1 %exitcond70.not, label %.lr.ph57.preheader, label %.preheader51, !llvm.loop !23

.lr.ph57:                                         ; preds = %.lr.ph57.preheader, %.lr.ph57
  %.256 = phi i32 [ %47, %.lr.ph57 ], [ 0, %.lr.ph57.preheader ]
  %46 = call ptr @SparseMatrix_coordinate_form_add_entry(ptr noundef %32, i32 noundef %.256, i32 noundef %.256, ptr noundef nonnull %4) #9
  %47 = add nuw nsw i32 %.256, 1
  %exitcond72.not = icmp eq i32 %47, %smax71
  br i1 %exitcond72.not, label %._crit_edge58, label %.lr.ph57, !llvm.loop !24

._crit_edge58:                                    ; preds = %.lr.ph57, %gv_calloc.exit50._crit_edge
  %48 = call ptr @SparseMatrix_from_coordinate_format(ptr noundef %32) #9
  %49 = call ptr @SparseMatrix_symmetrize(ptr noundef %48, i1 noundef zeroext false) #9
  call void @SparseMatrix_delete(ptr noundef %48) #9
  call void @SparseMatrix_delete(ptr noundef %32) #9
  call void @free(ptr noundef %11) #9
  call void @free(ptr noundef %17) #9
  call void @freeGraph(ptr noundef %31) #9
  call void @llvm.lifetime.end.p0(i64 8, ptr nonnull %4) #9
  ret ptr %49
}